target datalayout = "e-m:e-p270:32:32-p271:32:32-p272:64:64-i64:64-i128:128-f80:128-n8:16:32:64-S128"
target triple = "x86_64-pc-linux-gnu"

%class.G1CMIsAliveClosure = type { %class.BoolObjectClosure, ptr }
%class.BoolObjectClosure = type { ptr }
%class.BitMap = type { ptr, i64 }
%class.G1MappingChangedListener = type { ptr }
%class.MemRegion = type { ptr, i64 }
%class.G1CMSubjectToDiscoveryClosure = type { %class.BoolObjectClosure, ptr }
%class.G1STWIsAliveClosure = type { %class.BoolObjectClosure, ptr }
%class.TimeInstant = type { %class.CompositeCounterRepresentation }
%class.CompositeCounterRepresentation = type { %class.Representation }
%class.Representation = type { %class.PairRep }
%class.PairRep = type { i64, i64 }
%class.G1Policy = type { ptr, %class.G1Predictions, ptr, %class.G1RemSetTrackingPolicy, ptr, %class.G1OldGenAllocationTracker, ptr, ptr, double, i32, i32, i32, ptr, ptr, double, i32, %class.G1YoungGenSizer, i32, i64, i64, %class.G1ConcurrentStartToMixedTimeTracker, ptr, ptr, ptr, ptr, double, double, i32, i32, %class.AgeTable }
%class.G1Predictions = type { double }
%class.G1RemSetTrackingPolicy = type { i8 }
%class.G1OldGenAllocationTracker = type { i64, i64, i64, i64, i64 }
%class.G1YoungGenSizer = type { ptr, i32, i8, i32, i32 }
%class.G1ConcurrentStartToMixedTimeTracker = type { i8, double, double, double }
%class.AgeTable = type { [16 x i64], i8, [16 x ptr] }
%class.G1CollectedHeap = type { %class.CollectedHeap, ptr, ptr, ptr, ptr, ptr, %class.TimeInstant, %class.G1HeapRegionSet, %class.G1HeapRegionSet, %class.G1MonotonicArenaMemoryStats, %class.G1MonotonicArenaMemoryStats, ptr, %class.G1RegionMappingChangedListener, ptr, %class.G1HeapRegionManager, ptr, %class.G1YoungGCAllocationFailureInjector, ptr, i64, i64, %class.G1EvacStats, %class.G1EvacStats, ptr, i32, i32, %class.G1CollectorState, i32, i32, %class.G1EdenRegions, %class.G1SurvivorRegions, ptr, ptr, ptr, ptr, %class.G1CollectionSet, ptr, %class.G1CardSetConfiguration, %class.G1MonotonicArenaFreePool, ptr, ptr, ptr, ptr, ptr, %class.G1STWIsAliveClosure, %class.G1STWSubjectToDiscoveryClosure, ptr, %class.G1CMIsAliveClosure, %class.G1CMSubjectToDiscoveryClosure, %class.G1HeapRegionAttrBiasedMappedArray }
%class.CollectedHeap = type { ptr, ptr, i64, i64, %class.SoftRefPolicy, %class.MemRegion, i8, i64, i32, i32, i32, i32, ptr, ptr }
%class.SoftRefPolicy = type { i8, i8 }
%class.G1HeapRegionSet = type { %class.G1HeapRegionSetBase.base, [7 x i8] }
%class.G1HeapRegionSetBase.base = type <{ ptr, ptr, i32, [4 x i8], ptr, i8 }>
%class.G1MonotonicArenaMemoryStats = type { [4 x i64], [4 x i64] }
%class.G1RegionMappingChangedListener = type { %class.G1MappingChangedListener }
%class.G1HeapRegionManager = type { ptr, ptr, %class.G1CommittedRegionMap, i32, [4 x i8], %class.G1HeapRegionTable, ptr, ptr, %class.G1FreeRegionList }
%class.G1CommittedRegionMap = type { ptr, %class.CHeapBitMap, %class.CHeapBitMap, i32, i32 }
%class.CHeapBitMap = type <{ %class.GrowableBitMap, i8, [7 x i8] }>
%class.GrowableBitMap = type { %class.BitMap }
%class.G1HeapRegionTable = type { %class.G1BiasedMappedArray.base, [4 x i8] }
%class.G1BiasedMappedArray.base = type { %class.G1BiasedMappedArrayBase.base }
%class.G1BiasedMappedArrayBase.base = type <{ ptr, ptr, ptr, i64, ptr, i64, i32 }>
%class.G1FreeRegionList = type { %class.G1HeapRegionSetBase.base, ptr, ptr, ptr, ptr }
%class.G1YoungGCAllocationFailureInjector = type { i8 }
%class.G1EvacStats = type { %class.PLABStats, i64, i64, %class.AdaptiveWeightedAverage, i64, i32, i64, i64, i64, i64, i64 }
%class.PLABStats = type { ptr, ptr, i64, i64, i64, i64 }
%class.AdaptiveWeightedAverage = type { float, i32, i32, i8, float }
%class.G1CollectorState = type { i8, i8, i8, i8, i8, i8, i8 }
%class.G1EdenRegions = type { i32, i64, %class.G1RegionsOnNodes }
%class.G1RegionsOnNodes = type { ptr, ptr }
%class.G1SurvivorRegions = type { ptr, i64, %class.G1RegionsOnNodes }
%class.G1CollectionSet = type { ptr, ptr, %class.G1CollectionSetCandidates, ptr, i32, i32, i32, i32, i32, %class.G1CollectionCandidateRegionList, i32, i64 }
%class.G1CollectionSetCandidates = type { [8 x i8], %class.G1CollectionCandidateList, %class.G1CollectionCandidateList, ptr, i32, i32 }
%class.G1CollectionCandidateList = type { %class.GrowableArray }
%class.GrowableArray = type { %class.GrowableArrayWithAllocator, %class.GrowableArrayMetadata }
%class.GrowableArrayWithAllocator = type { %class.GrowableArrayView }
%class.GrowableArrayView = type { %class.GrowableArrayBase, ptr }
%class.GrowableArrayBase = type { i32, i32 }
%class.GrowableArrayMetadata = type { i64 }
%class.G1CollectionCandidateRegionList = type { %class.GrowableArray.2 }
%class.GrowableArray.2 = type { %class.GrowableArrayWithAllocator.3, %class.GrowableArrayMetadata }
%class.GrowableArrayWithAllocator.3 = type { %class.GrowableArrayView.4 }
%class.GrowableArrayView.4 = type { %class.GrowableArrayBase, ptr }
%class.G1CardSetConfiguration = type { i32, i32, i32, i32, i32, i32, i32, i32, i32, i32, i32, ptr }
%class.G1MonotonicArenaFreePool = type { i32, ptr }
%class.G1STWSubjectToDiscoveryClosure = type { %class.BoolObjectClosure, ptr }
%class.G1HeapRegionAttrBiasedMappedArray = type { %class.G1BiasedMappedArray.base.6, [4 x i8] }
%class.G1BiasedMappedArray.base.6 = type { %class.G1BiasedMappedArrayBase.base }

@_ZN12G1HeapRegion10GrainBytesE = external global i64, align 8

; Function Attrs: mustprogress nounwind uwtable
define linkonce_odr hidden noundef ptr @_ZN15G1CollectedHeap15collector_stateEv(ptr noundef nonnull align 8 dereferenceable(1488) %0) #1 comdat align 2 {
  %2 = alloca ptr, align 8
  store ptr %0, ptr %2, align 8
  %3 = load ptr, ptr %2, align 8
  %4 = getelementptr inbounds %class.G1CollectedHeap, ptr %3, i32 0, i32 25
  ret ptr %4
}

; Function Attrs: mustprogress nounwind uwtable
define linkonce_odr hidden noundef zeroext i1 @_ZNK16G1CollectorState19in_young_only_phaseEv(ptr noundef nonnull align 1 dereferenceable(7) %0) #1 comdat align 2 {
  %2 = alloca ptr, align 8
  store ptr %0, ptr %2, align 8
  %3 = load ptr, ptr %2, align 8
  %4 = getelementptr inbounds %class.G1CollectorState, ptr %3, i32 0, i32 0
  %5 = load i8, ptr %4, align 1
  %6 = trunc i8 %5 to i1
  br i1 %6, label %7, label %12

7:                                                ; preds = %1
  %8 = getelementptr inbounds %class.G1CollectorState, ptr %3, i32 0, i32 6
  %9 = load i8, ptr %8, align 1
  %10 = trunc i8 %9 to i1
  %11 = xor i1 %10, true
  br label %12

12:                                               ; preds = %7, %1
  %13 = phi i1 [ false, %1 ], [ %11, %7 ]
  ret i1 %13
}

; Function Attrs: mustprogress nounwind uwtable
define hidden noundef ptr @_ZNK8G1Policy15collector_stateEv(ptr noundef nonnull align 8 dereferenceable(552) %0) #1 align 2 {
  %2 = alloca ptr, align 8
  store ptr %0, ptr %2, align 8
  %3 = load ptr, ptr %2, align 8
  %4 = getelementptr inbounds %class.G1Policy, ptr %3, i32 0, i32 22
  %5 = load ptr, ptr %4, align 8
  %6 = call noundef ptr @_ZN15G1CollectedHeap15collector_stateEv(ptr noundef nonnull align 8 dereferenceable(1488) %5)
  ret ptr %6
}

; Function Attrs: mustprogress nounwind uwtable
define hidden noundef double @_ZNK8G1Policy25predict_eden_copy_time_msEjPm(ptr noundef nonnull align 8 dereferenceable(552) %0, i32 noundef %1, ptr noundef %2) #1 align 2 {
  %4 = alloca double, align 8
  %5 = alloca ptr, align 8
  %6 = alloca i32, align 4
  %7 = alloca ptr, align 8
  %8 = alloca i64, align 8
  store ptr %0, ptr %5, align 8
  store i32 %1, ptr %6, align 4
  store ptr %2, ptr %7, align 8
  %9 = load ptr, ptr %5, align 8
  %10 = load i32, ptr %6, align 4
  %11 = icmp eq i32 %10, 0
  br i1 %11, label %12, label %13

12:                                               ; preds = %3
  store double 0.000000e+00, ptr %4, align 8
  br label %35

13:                                               ; preds = %3
  %14 = getelementptr inbounds %class.G1Policy, ptr %9, i32 0, i32 12
  %15 = load ptr, ptr %14, align 8
  %16 = load i32, ptr %6, align 4
  %17 = sub i32 %16, 1
  %18 = call noundef double @_ZNK15G1SurvRateGroup20accum_surv_rate_predEj(ptr noundef nonnull align 8 dereferenceable(40) %15, i32 noundef %17)
  %19 = load i64, ptr @_ZN12G1HeapRegion10GrainBytesE, align 8
  %20 = uitofp i64 %19 to double
  %21 = fmul double %18, %20
  %22 = fptoui double %21 to i64
  store i64 %22, ptr %8, align 8
  %23 = load ptr, ptr %7, align 8
  %24 = icmp ne ptr %23, null
  br i1 %24, label %25, label %28

25:                                               ; preds = %13
  %26 = load i64, ptr %8, align 8
  %27 = load ptr, ptr %7, align 8
  store i64 %26, ptr %27, align 8
  br label %28

28:                                               ; preds = %25, %13
  %29 = getelementptr inbounds %class.G1Policy, ptr %9, i32 0, i32 2
  %30 = load ptr, ptr %29, align 8
  %31 = load i64, ptr %8, align 8
  %32 = call noundef ptr @_ZNK8G1Policy15collector_stateEv(ptr noundef nonnull align 8 dereferenceable(552) %9)
  %33 = call noundef zeroext i1 @_ZNK16G1CollectorState19in_young_only_phaseEv(ptr noundef nonnull align 1 dereferenceable(7) %32)
  %34 = call noundef double @_ZNK11G1Analytics27predict_object_copy_time_msEmb(ptr noundef nonnull align 8 dereferenceable(2048) %30, i64 noundef %31, i1 noundef zeroext %33)
  store double %34, ptr %4, align 8
  br label %35

35:                                               ; preds = %28, %12
  %36 = load double, ptr %4, align 8
  ret double %36
}