; Function Attrs: mustprogress nounwind uwtable
define hidden noundef double @_ZNK8G1Policy25predict_eden_copy_time_msEjPm(ptr nocapture noundef nonnull readonly align 8 dereferenceable(552) %0, i32 noundef %1, ptr noundef writeonly %2) local_unnamed_addr #1 align 2 {
  %4 = icmp eq i32 %1, 0
  br i1 %4, label %29, label %5

5:                                                ; preds = %3
  %6 = getelementptr inbounds i8, ptr %0, i64 120
  %7 = load ptr, ptr %6, align 8
  %8 = add i32 %1, -1
  %9 = tail call noundef double @_ZNK15G1SurvRateGroup20accum_surv_rate_predEj(ptr noundef nonnull align 8 dereferenceable(40) %7, i32 noundef %8) #18
  %10 = load i64, ptr @_ZN12G1HeapRegion10GrainBytesE, align 8
  %11 = uitofp i64 %10 to double
  %12 = fmul double %9, %11
  %13 = fptoui double %12 to i64
  %.not = icmp eq ptr %2, null
  br i1 %.not, label %15, label %14

14:                                               ; preds = %5
  store i64 %13, ptr %2, align 8
  br label %15

15:                                               ; preds = %14, %5
  %16 = getelementptr inbounds i8, ptr %0, i64 16
  %17 = load ptr, ptr %16, align 8
  %18 = getelementptr inbounds i8, ptr %0, i64 240
  %19 = load ptr, ptr %18, align 8
  %20 = getelementptr inbounds i8, ptr %19, i64 968
  %21 = load i8, ptr %20, align 1
  %22 = trunc i8 %21 to i1
  %23 = getelementptr inbounds i8, ptr %19, i64 974
  %24 = load i8, ptr %23, align 1
  %25 = trunc i8 %24 to i1
  %26 = xor i1 %25, true
  %27 = select i1 %22, i1 %26, i1 false
  %28 = tail call noundef double @_ZNK11G1Analytics27predict_object_copy_time_msEmb(ptr noundef nonnull align 8 dereferenceable(2048) %17, i64 noundef %13, i1 noundef zeroext %27) #18
  br label %29

29:                                               ; preds = %3, %15
  %.0 = phi double [ %28, %15 ], [ 0.000000e+00, %3 ]
  ret double %.0
}